target datalayout = "e-m:e-p270:32:32-p271:32:32-p272:64:64-i64:64-i128:128-f80:128-n8:16:32:64-S128"
target triple = "x86_64-pc-linux-gnu"

%struct.strbuf = type { i64, i64, ptr }
%struct.string_list = type { ptr, i64, i64, i8, ptr }
%struct.existing_packs = type { %struct.string_list, %struct.string_list, %struct.string_list }
%struct.pack_geometry = type { ptr, i32, i32, i32, i32 }
%struct.oidset = type { %struct.kh_oid_set }
%struct.kh_oid_set = type { i32, i32, i32, i32, ptr, ptr, ptr }
%struct.packed_git = type { %struct.hashmap_entry, ptr, %struct.list_head, ptr, i64, ptr, i64, i32, i64, %struct.oidset, i32, i64, i32, i32, i8, [32 x i8], ptr, ptr, ptr, i64, ptr, i64, ptr, [0 x i8] }
%struct.hashmap_entry = type { ptr, i32 }
%struct.list_head = type { ptr, ptr }

@strbuf_slopbuf = external global [0 x i8], align 1
@packdir = internal global ptr null, align 8
@.str.116 = private unnamed_addr constant [6 x i8] c".pack\00", align 1
@.str.117 = private unnamed_addr constant [11 x i8] c"./strbuf.h\00", align 1
@.str.118 = private unnamed_addr constant [30 x i8] c"strbuf_setlen() beyond buffer\00", align 1
@__const.geometry_remove_redundant_packs.buf = private unnamed_addr constant %struct.strbuf { i64 0, i64 0, ptr @strbuf_slopbuf }, align 8

; Function Attrs: inlinehint nounwind uwtable
define internal zeroext i1 @strip_suffix_mem(ptr noundef %0, ptr noundef %1, ptr noundef %2) #5 {
  %4 = alloca i1, align 1
  %5 = alloca ptr, align 8
  %6 = alloca ptr, align 8
  %7 = alloca ptr, align 8
  %8 = alloca i64, align 8
  %9 = alloca i32, align 4
  store ptr %0, ptr %5, align 8, !tbaa !11
  store ptr %1, ptr %6, align 8, !tbaa !171
  store ptr %2, ptr %7, align 8, !tbaa !11
  call void @llvm.lifetime.start.p0(i64 8, ptr %8) #10
  %10 = load ptr, ptr %7, align 8, !tbaa !11
  %11 = call i64 @strlen(ptr noundef %10) #13
  store i64 %11, ptr %8, align 8, !tbaa !121
  %12 = load ptr, ptr %6, align 8, !tbaa !171
  %13 = load i64, ptr %12, align 8, !tbaa !121
  %14 = load i64, ptr %8, align 8, !tbaa !121
  %15 = icmp ult i64 %13, %14
  br i1 %15, label %27, label %16

16:                                               ; preds = %3
  %17 = load ptr, ptr %5, align 8, !tbaa !11
  %18 = load ptr, ptr %6, align 8, !tbaa !171
  %19 = load i64, ptr %18, align 8, !tbaa !121
  %20 = load i64, ptr %8, align 8, !tbaa !121
  %21 = sub i64 %19, %20
  %22 = getelementptr inbounds nuw i8, ptr %17, i64 %21
  %23 = load ptr, ptr %7, align 8, !tbaa !11
  %24 = load i64, ptr %8, align 8, !tbaa !121
  %25 = call i32 @memcmp(ptr noundef %22, ptr noundef %23, i64 noundef %24) #13
  %26 = icmp ne i32 %25, 0
  br i1 %26, label %27, label %28

27:                                               ; preds = %16, %3
  store i1 false, ptr %4, align 1
  store i32 1, ptr %9, align 4
  br label %33

28:                                               ; preds = %16
  %29 = load i64, ptr %8, align 8, !tbaa !121
  %30 = load ptr, ptr %6, align 8, !tbaa !171
  %31 = load i64, ptr %30, align 8, !tbaa !121
  %32 = sub i64 %31, %29
  store i64 %32, ptr %30, align 8, !tbaa !121
  store i1 true, ptr %4, align 1
  store i32 1, ptr %9, align 4
  br label %33

33:                                               ; preds = %28, %27
  call void @llvm.lifetime.end.p0(i64 8, ptr %8) #10
  %34 = load i1, ptr %4, align 1
  ret i1 %34
}

; Function Attrs: inlinehint nounwind uwtable
define internal i32 @strbuf_strip_suffix(ptr noundef %0, ptr noundef %1) #5 {
  %3 = alloca i32, align 4
  %4 = alloca ptr, align 8
  %5 = alloca ptr, align 8
  store ptr %0, ptr %4, align 8, !tbaa !168
  store ptr %1, ptr %5, align 8, !tbaa !11
  %6 = load ptr, ptr %4, align 8, !tbaa !168
  %7 = getelementptr inbounds nuw %struct.strbuf, ptr %6, i32 0, i32 2
  %8 = load ptr, ptr %7, align 8, !tbaa !40
  %9 = load ptr, ptr %4, align 8, !tbaa !168
  %10 = getelementptr inbounds nuw %struct.strbuf, ptr %9, i32 0, i32 1
  %11 = load ptr, ptr %5, align 8, !tbaa !11
  %12 = call zeroext i1 @strip_suffix_mem(ptr noundef %8, ptr noundef %10, ptr noundef %11)
  br i1 %12, label %13, label %18

13:                                               ; preds = %2
  %14 = load ptr, ptr %4, align 8, !tbaa !168
  %15 = load ptr, ptr %4, align 8, !tbaa !168
  %16 = getelementptr inbounds nuw %struct.strbuf, ptr %15, i32 0, i32 1
  %17 = load i64, ptr %16, align 8, !tbaa !130
  call void @strbuf_setlen(ptr noundef %14, i64 noundef %17)
  store i32 1, ptr %3, align 4
  br label %19

18:                                               ; preds = %2
  store i32 0, ptr %3, align 4
  br label %19

19:                                               ; preds = %18, %13
  %20 = load i32, ptr %3, align 4
  ret i32 %20
}

; Function Attrs: inlinehint nounwind uwtable
define internal void @strbuf_addstr(ptr noundef %0, ptr noundef %1) #5 {
  %3 = alloca ptr, align 8
  %4 = alloca ptr, align 8
  store ptr %0, ptr %3, align 8, !tbaa !168
  store ptr %1, ptr %4, align 8, !tbaa !11
  %5 = load ptr, ptr %3, align 8, !tbaa !168
  %6 = load ptr, ptr %4, align 8, !tbaa !11
  %7 = load ptr, ptr %4, align 8, !tbaa !11
  %8 = call i64 @strlen(ptr noundef %7) #13
  call void @strbuf_add(ptr noundef %5, ptr noundef %6, i64 noundef %8)
  ret void
}

; Function Attrs: inlinehint nounwind uwtable
define internal void @strbuf_setlen(ptr noundef %0, i64 noundef %1) #5 {
  %3 = alloca ptr, align 8
  %4 = alloca i64, align 8
  store ptr %0, ptr %3, align 8, !tbaa !168
  store i64 %1, ptr %4, align 8, !tbaa !121
  %5 = load i64, ptr %4, align 8, !tbaa !121
  %6 = load ptr, ptr %3, align 8, !tbaa !168
  %7 = getelementptr inbounds nuw %struct.strbuf, ptr %6, i32 0, i32 0
  %8 = load i64, ptr %7, align 8, !tbaa !170
  %9 = icmp ne i64 %8, 0
  br i1 %9, label %10, label %15

10:                                               ; preds = %2
  %11 = load ptr, ptr %3, align 8, !tbaa !168
  %12 = getelementptr inbounds nuw %struct.strbuf, ptr %11, i32 0, i32 0
  %13 = load i64, ptr %12, align 8, !tbaa !170
  %14 = sub i64 %13, 1
  br label %16

15:                                               ; preds = %2
  br label %16

16:                                               ; preds = %15, %10
  %17 = phi i64 [ %14, %10 ], [ 0, %15 ]
  %18 = icmp ugt i64 %5, %17
  br i1 %18, label %19, label %20

19:                                               ; preds = %16
  call void (ptr, i32, ptr, ...) @BUG_fl(ptr noundef @.str.117, i32 noundef 167, ptr noundef @.str.118) #11
  unreachable

20:                                               ; preds = %16
  %21 = load i64, ptr %4, align 8, !tbaa !121
  %22 = load ptr, ptr %3, align 8, !tbaa !168
  %23 = getelementptr inbounds nuw %struct.strbuf, ptr %22, i32 0, i32 1
  store i64 %21, ptr %23, align 8, !tbaa !130
  %24 = load ptr, ptr %3, align 8, !tbaa !168
  %25 = getelementptr inbounds nuw %struct.strbuf, ptr %24, i32 0, i32 2
  %26 = load ptr, ptr %25, align 8, !tbaa !40
  %27 = icmp ne ptr %26, @strbuf_slopbuf
  br i1 %27, label %28, label %34

28:                                               ; preds = %20
  %29 = load ptr, ptr %3, align 8, !tbaa !168
  %30 = getelementptr inbounds nuw %struct.strbuf, ptr %29, i32 0, i32 2
  %31 = load ptr, ptr %30, align 8, !tbaa !40
  %32 = load i64, ptr %4, align 8, !tbaa !121
  %33 = getelementptr inbounds nuw i8, ptr %31, i64 %32
  store i8 0, ptr %33, align 1, !tbaa !102
  br label %35

34:                                               ; preds = %20
  br label %35

35:                                               ; preds = %34, %28
  ret void
}

; Function Attrs: nounwind uwtable
define internal void @geometry_remove_redundant_packs(ptr noundef %0, ptr noundef %1, ptr noundef %2) #0 {
  %4 = alloca ptr, align 8
  %5 = alloca ptr, align 8
  %6 = alloca ptr, align 8
  %7 = alloca %struct.strbuf, align 8
  %8 = alloca i32, align 4
  %9 = alloca ptr, align 8
  %10 = alloca i32, align 4
  store ptr %0, ptr %4, align 8, !tbaa !117
  store ptr %1, ptr %5, align 8, !tbaa !103
  store ptr %2, ptr %6, align 8, !tbaa !113
  call void @llvm.lifetime.start.p0(i64 24, ptr %7) #10
  call void @llvm.memcpy.p0.p0.i64(ptr align 8 %7, ptr align 8 @__const.geometry_remove_redundant_packs.buf, i64 24, i1 false)
  call void @llvm.lifetime.start.p0(i64 4, ptr %8) #10
  store i32 0, ptr %8, align 4, !tbaa !4
  br label %11

11:                                               ; preds = %59, %3
  %12 = load i32, ptr %8, align 4, !tbaa !4
  %13 = load ptr, ptr %4, align 8, !tbaa !117
  %14 = getelementptr inbounds nuw %struct.pack_geometry, ptr %13, i32 0, i32 3
  %15 = load i32, ptr %14, align 8, !tbaa !61
  %16 = icmp ult i32 %12, %15
  br i1 %16, label %17, label %62

17:                                               ; preds = %11
  call void @llvm.lifetime.start.p0(i64 8, ptr %9) #10
  %18 = load ptr, ptr %4, align 8, !tbaa !117
  %19 = getelementptr inbounds nuw %struct.pack_geometry, ptr %18, i32 0, i32 0
  %20 = load ptr, ptr %19, align 8, !tbaa !62
  %21 = load i32, ptr %8, align 4, !tbaa !4
  %22 = zext i32 %21 to i64
  %23 = getelementptr inbounds nuw ptr, ptr %20, i64 %22
  %24 = load ptr, ptr %23, align 8, !tbaa !63
  store ptr %24, ptr %9, align 8, !tbaa !63
  %25 = load ptr, ptr %5, align 8, !tbaa !103
  %26 = load ptr, ptr %9, align 8, !tbaa !63
  %27 = getelementptr inbounds nuw %struct.packed_git, ptr %26, i32 0, i32 15
  %28 = getelementptr inbounds [32 x i8], ptr %27, i64 0, i64 0
  %29 = call ptr @hash_to_hex(ptr noundef %28)
  %30 = call i32 @string_list_has_string(ptr noundef %25, ptr noundef %29)
  %31 = icmp ne i32 %30, 0
  br i1 %31, label %32, label %33

32:                                               ; preds = %17
  store i32 4, ptr %10, align 4
  br label %56

33:                                               ; preds = %17
  call void @strbuf_setlen(ptr noundef %7, i64 noundef 0)
  %34 = load ptr, ptr %9, align 8, !tbaa !63
  %35 = call ptr @pack_basename(ptr noundef %34)
  call void @strbuf_addstr(ptr noundef %7, ptr noundef %35)
  %36 = call i32 @strbuf_strip_suffix(ptr noundef %7, ptr noundef @.str.116)
  %37 = load ptr, ptr %9, align 8, !tbaa !63
  %38 = getelementptr inbounds nuw %struct.packed_git, ptr %37, i32 0, i32 14
  %39 = load i8, ptr %38, align 8
  %40 = lshr i8 %39, 1
  %41 = and i8 %40, 1
  %42 = zext i8 %41 to i32
  %43 = icmp ne i32 %42, 0
  br i1 %43, label %51, label %44

44:                                               ; preds = %33
  %45 = load ptr, ptr %6, align 8, !tbaa !113
  %46 = getelementptr inbounds nuw %struct.existing_packs, ptr %45, i32 0, i32 0
  %47 = getelementptr inbounds nuw %struct.strbuf, ptr %7, i32 0, i32 2
  %48 = load ptr, ptr %47, align 8, !tbaa !40
  %49 = call i32 @string_list_has_string(ptr noundef %46, ptr noundef %48)
  %50 = icmp ne i32 %49, 0
  br i1 %50, label %51, label %52

51:                                               ; preds = %44, %33
  store i32 4, ptr %10, align 4
  br label %56

52:                                               ; preds = %44
  %53 = load ptr, ptr @packdir, align 8, !tbaa !11
  %54 = getelementptr inbounds nuw %struct.strbuf, ptr %7, i32 0, i32 2
  %55 = load ptr, ptr %54, align 8, !tbaa !40
  call void @remove_redundant_pack(ptr noundef %53, ptr noundef %55)
  store i32 0, ptr %10, align 4
  br label %56

56:                                               ; preds = %52, %51, %32
  call void @llvm.lifetime.end.p0(i64 8, ptr %9) #10
  %57 = load i32, ptr %10, align 4
  switch i32 %57, label %63 [
    i32 0, label %58
    i32 4, label %59
  ]

58:                                               ; preds = %56
  br label %59

59:                                               ; preds = %58, %56
  %60 = load i32, ptr %8, align 4, !tbaa !4
  %61 = add i32 %60, 1
  store i32 %61, ptr %8, align 4, !tbaa !4
  br label %11, !llvm.loop !160

62:                                               ; preds = %11
  call void @strbuf_release(ptr noundef %7)
  call void @llvm.lifetime.end.p0(i64 4, ptr %8) #10
  call void @llvm.lifetime.end.p0(i64 24, ptr %7) #10
  ret void

63:                                               ; preds = %56
  unreachable
}