; Function Attrs: nounwind uwtable
define internal fastcc void @geometry_remove_redundant_packs(ptr noundef nonnull readonly captures(none) %0, ptr noundef nonnull %1, ptr noundef nonnull %2) unnamed_addr #0 {
  %4 = alloca %struct.strbuf, align 8
  call void @llvm.lifetime.start.p0(i64 24, ptr nonnull %4) #16
  call void @llvm.memcpy.p0.p0.i64(ptr noundef nonnull align 8 dereferenceable(24) %4, ptr noundef nonnull align 8 dereferenceable(24) @__const.geometry_remove_redundant_packs.buf, i64 24, i1 false)
  %5 = getelementptr inbounds nuw i8, ptr %0, i64 16
  %6 = load i32, ptr %5, align 8, !tbaa !67
  %.not12 = icmp eq i32 %6, 0
  br i1 %.not12, label %._crit_edge, label %.lr.ph

.lr.ph:                                           ; preds = %3
  %7 = getelementptr inbounds nuw i8, ptr %4, i64 8
  %8 = getelementptr inbounds nuw i8, ptr %4, i64 16
  br label %9

9:                                                ; preds = %.lr.ph, %42
  %indvars.iv = phi i64 [ 0, %.lr.ph ], [ %indvars.iv.next, %42 ]
  %10 = load ptr, ptr %0, align 8, !tbaa !63
  %11 = getelementptr inbounds nuw ptr, ptr %10, i64 %indvars.iv
  %12 = load ptr, ptr %11, align 8, !tbaa !54
  %13 = getelementptr inbounds nuw i8, ptr %12, i64 153
  %14 = call ptr @hash_to_hex(ptr noundef nonnull %13) #16
  %15 = call i32 @string_list_has_string(ptr noundef nonnull %1, ptr noundef %14) #16
  %.not = icmp eq i32 %15, 0
  br i1 %.not, label %16, label %42

16:                                               ; preds = %9
  store i64 0, ptr %7, align 8, !tbaa !50
  %17 = load ptr, ptr %8, align 8, !tbaa !32
  %.not9.i = icmp eq ptr %17, @strbuf_slopbuf
  br i1 %.not9.i, label %strbuf_setlen.exit, label %18

18:                                               ; preds = %16
  store i8 0, ptr %17, align 1, !tbaa !51
  br label %strbuf_setlen.exit

strbuf_setlen.exit:                               ; preds = %16, %18
  %19 = call ptr @pack_basename(ptr noundef nonnull %12) #16
  %20 = call i64 @strlen(ptr noundef nonnull dereferenceable(1) %19) #19
  call void @strbuf_add(ptr noundef nonnull %4, ptr noundef nonnull %19, i64 noundef %20) #16
  %21 = load ptr, ptr %8, align 8, !tbaa !32
  %22 = load i64, ptr %7, align 8, !tbaa !52
  %23 = icmp ult i64 %22, 5
  br i1 %23, label %strbuf_strip_suffix.exit, label %24

24:                                               ; preds = %strbuf_setlen.exit
  %25 = add i64 %22, -5
  %26 = getelementptr inbounds nuw i8, ptr %21, i64 %25
  %bcmp.i.i = call i32 @bcmp(ptr noundef nonnull readonly dereferenceable(5) %26, ptr noundef nonnull readonly dereferenceable(5) @.str.116, i64 5)
  %.not.i.i = icmp eq i32 %bcmp.i.i, 0
  br i1 %.not.i.i, label %27, label %strbuf_strip_suffix.exit

27:                                               ; preds = %24
  store i64 %25, ptr %7, align 8, !tbaa !52
  %28 = load i64, ptr %4, align 8, !tbaa !53
  %spec.select.i.i = call i64 @llvm.usub.sat.i64(i64 %28, i64 1)
  %29 = icmp ugt i64 %25, %spec.select.i.i
  br i1 %29, label %30, label %31

30:                                               ; preds = %27
  call void (ptr, i32, ptr, ...) @BUG_fl(ptr noundef nonnull @.str.117, i32 noundef 167, ptr noundef nonnull @.str.118) #17
  unreachable

31:                                               ; preds = %27
  %.not9.i.i = icmp eq ptr %21, @strbuf_slopbuf
  br i1 %.not9.i.i, label %strbuf_strip_suffix.exit, label %32

32:                                               ; preds = %31
  store i8 0, ptr %26, align 1, !tbaa !51
  br label %strbuf_strip_suffix.exit

strbuf_strip_suffix.exit:                         ; preds = %strbuf_setlen.exit, %24, %31, %32
  %33 = getelementptr inbounds nuw i8, ptr %12, i64 152
  %34 = load i8, ptr %33, align 8
  %35 = and i8 %34, 2
  %.not9 = icmp eq i8 %35, 0
  br i1 %.not9, label %36, label %42

36:                                               ; preds = %strbuf_strip_suffix.exit
  %37 = load ptr, ptr %8, align 8, !tbaa !32
  %38 = call i32 @string_list_has_string(ptr noundef nonnull %2, ptr noundef %37) #16
  %.not10 = icmp eq i32 %38, 0
  br i1 %.not10, label %39, label %42

39:                                               ; preds = %36
  %40 = load ptr, ptr @packdir, align 8, !tbaa !8
  %41 = load ptr, ptr %8, align 8, !tbaa !32
  call fastcc void @remove_redundant_pack(ptr noundef %40, ptr noundef %41)
  br label %42

42:                                               ; preds = %strbuf_strip_suffix.exit, %36, %9, %39
  %indvars.iv.next = add nuw nsw i64 %indvars.iv, 1
  %43 = load i32, ptr %5, align 8, !tbaa !67
  %44 = zext i32 %43 to i64
  %45 = icmp samesign ult i64 %indvars.iv.next, %44
  br i1 %45, label %9, label %._crit_edge, !llvm.loop !125

._crit_edge:                                      ; preds = %42, %3
  call void @strbuf_release(ptr noundef nonnull %4) #16
  call void @llvm.lifetime.end.p0(i64 24, ptr nonnull %4) #16
  ret void
}